target datalayout = "e-m:e-p270:32:32-p271:32:32-p272:64:64-i64:64-i128:128-f80:128-n8:16:32:64-S128"
target triple = "x86_64-pc-linux-gnu"

%struct.lua_State = type { i8, i8, i8, i8, i8, i8, i8, ptr, ptr, ptr, ptr, ptr, ptr, ptr, ptr, i32, i32, i16, i16, i32, ptr, ptr, ptr, ptr, ptr }
%struct.global_State = type { %struct.stringtable, ptr, ptr, i8, i8, ptr, ptr, ptr, i64, i64, i32, i32, i32, [40 x ptr], [40 x ptr], ptr, ptr, ptr, [256 x i64], ptr, %struct.UpVal, [11 x ptr], [11 x ptr], [21 x ptr], %struct.lua_TValue, %struct.lua_TValue, i32, ptr, i64, [4 x i64], %struct.lua_Callbacks, %struct.lua_ExecutionCallbacks, [128 x ptr], [128 x ptr], [128 x ptr], %struct.GCStats }
%struct.stringtable = type { ptr, i32, i32 }
%struct.UpVal = type { i8, i8, i8, i8, ptr, %union.anon }
%union.anon = type { %struct.anon }
%struct.anon = type { ptr, ptr, ptr }
%struct.lua_TValue = type { %union.Value, [1 x i32], i32 }
%union.Value = type { ptr }
%struct.lua_Callbacks = type { ptr, ptr, ptr, ptr, ptr, ptr, ptr, ptr, ptr, ptr }
%struct.lua_ExecutionCallbacks = type { ptr, ptr, ptr, ptr, ptr, ptr, ptr }
%struct.GCStats = type { [32 x i32], i32, i32, i64, i64, i64, double, double, double }

; Function Attrs: mustprogress uwtable
define hidden noundef ptr @_Z14luaF_findupvalP9lua_StateP10lua_TValue(ptr noundef %0, ptr noundef %1) #0 {
  %3 = alloca ptr, align 8
  %4 = alloca ptr, align 8
  %5 = alloca ptr, align 8
  %6 = alloca ptr, align 8
  %7 = alloca ptr, align 8
  %8 = alloca ptr, align 8
  %9 = alloca i32, align 4
  %10 = alloca ptr, align 8
  store ptr %0, ptr %4, align 8, !tbaa !4
  store ptr %1, ptr %5, align 8, !tbaa !93
  call void @llvm.lifetime.start.p0(i64 8, ptr %6) #5
  %11 = load ptr, ptr %4, align 8, !tbaa !4
  %12 = getelementptr inbounds nuw %struct.lua_State, ptr %11, i32 0, i32 9
  %13 = load ptr, ptr %12, align 8, !tbaa !23
  store ptr %13, ptr %6, align 8, !tbaa !94
  call void @llvm.lifetime.start.p0(i64 8, ptr %7) #5
  %14 = load ptr, ptr %4, align 8, !tbaa !4
  %15 = getelementptr inbounds nuw %struct.lua_State, ptr %14, i32 0, i32 21
  store ptr %15, ptr %7, align 8, !tbaa !95
  call void @llvm.lifetime.start.p0(i64 8, ptr %8) #5
  br label %16

16:                                               ; preds = %37, %2
  %17 = load ptr, ptr %7, align 8, !tbaa !95
  %18 = load ptr, ptr %17, align 8, !tbaa !97
  %19 = icmp ne ptr %18, null
  br i1 %19, label %20, label %27

20:                                               ; preds = %16
  %21 = load ptr, ptr %7, align 8, !tbaa !95
  %22 = load ptr, ptr %21, align 8, !tbaa !97
  store ptr %22, ptr %8, align 8, !tbaa !97
  %23 = getelementptr inbounds nuw %struct.UpVal, ptr %22, i32 0, i32 4
  %24 = load ptr, ptr %23, align 8, !tbaa !98
  %25 = load ptr, ptr %5, align 8, !tbaa !93
  %26 = icmp uge ptr %24, %25
  br label %27

27:                                               ; preds = %20, %16
  %28 = phi i1 [ false, %16 ], [ %26, %20 ]
  br i1 %28, label %29, label %41

29:                                               ; preds = %27
  %30 = load ptr, ptr %8, align 8, !tbaa !97
  %31 = getelementptr inbounds nuw %struct.UpVal, ptr %30, i32 0, i32 4
  %32 = load ptr, ptr %31, align 8, !tbaa !98
  %33 = load ptr, ptr %5, align 8, !tbaa !93
  %34 = icmp eq ptr %32, %33
  br i1 %34, label %35, label %37

35:                                               ; preds = %29
  %36 = load ptr, ptr %8, align 8, !tbaa !97
  store ptr %36, ptr %3, align 8
  store i32 1, ptr %9, align 4
  br label %102

37:                                               ; preds = %29
  %38 = load ptr, ptr %8, align 8, !tbaa !97
  %39 = getelementptr inbounds nuw %struct.UpVal, ptr %38, i32 0, i32 5
  %40 = getelementptr inbounds nuw %struct.anon, ptr %39, i32 0, i32 2
  store ptr %40, ptr %7, align 8, !tbaa !95
  br label %16, !llvm.loop !99

41:                                               ; preds = %27
  call void @llvm.lifetime.start.p0(i64 8, ptr %10) #5
  %42 = load ptr, ptr %4, align 8, !tbaa !4
  %43 = load ptr, ptr %4, align 8, !tbaa !4
  %44 = getelementptr inbounds nuw %struct.lua_State, ptr %43, i32 0, i32 4
  %45 = load i8, ptr %44, align 4, !tbaa !9
  %46 = call noundef ptr @_Z12luaM_newgco_P9lua_Statemh(ptr noundef %42, i64 noundef 40, i8 noundef zeroext %45)
  store ptr %46, ptr %10, align 8, !tbaa !97
  %47 = load ptr, ptr %4, align 8, !tbaa !4
  %48 = getelementptr inbounds nuw %struct.lua_State, ptr %47, i32 0, i32 9
  %49 = load ptr, ptr %48, align 8, !tbaa !23
  %50 = getelementptr inbounds nuw %struct.global_State, ptr %49, i32 0, i32 3
  %51 = load i8, ptr %50, align 8, !tbaa !24
  %52 = zext i8 %51 to i32
  %53 = and i32 %52, 3
  %54 = trunc i32 %53 to i8
  %55 = load ptr, ptr %10, align 8, !tbaa !97
  %56 = getelementptr inbounds nuw %struct.UpVal, ptr %55, i32 0, i32 1
  store i8 %54, ptr %56, align 1, !tbaa !100
  %57 = load ptr, ptr %10, align 8, !tbaa !97
  %58 = getelementptr inbounds nuw %struct.UpVal, ptr %57, i32 0, i32 0
  store i8 12, ptr %58, align 8, !tbaa !101
  %59 = load ptr, ptr %4, align 8, !tbaa !4
  %60 = getelementptr inbounds nuw %struct.lua_State, ptr %59, i32 0, i32 4
  %61 = load i8, ptr %60, align 4, !tbaa !9
  %62 = load ptr, ptr %10, align 8, !tbaa !97
  %63 = getelementptr inbounds nuw %struct.UpVal, ptr %62, i32 0, i32 2
  store i8 %61, ptr %63, align 2, !tbaa !102
  %64 = load ptr, ptr %10, align 8, !tbaa !97
  %65 = getelementptr inbounds nuw %struct.UpVal, ptr %64, i32 0, i32 3
  store i8 0, ptr %65, align 1, !tbaa !103
  %66 = load ptr, ptr %5, align 8, !tbaa !93
  %67 = load ptr, ptr %10, align 8, !tbaa !97
  %68 = getelementptr inbounds nuw %struct.UpVal, ptr %67, i32 0, i32 4
  store ptr %66, ptr %68, align 8, !tbaa !98
  %69 = load ptr, ptr %7, align 8, !tbaa !95
  %70 = load ptr, ptr %69, align 8, !tbaa !97
  %71 = load ptr, ptr %10, align 8, !tbaa !97
  %72 = getelementptr inbounds nuw %struct.UpVal, ptr %71, i32 0, i32 5
  %73 = getelementptr inbounds nuw %struct.anon, ptr %72, i32 0, i32 2
  store ptr %70, ptr %73, align 8, !tbaa !90
  %74 = load ptr, ptr %10, align 8, !tbaa !97
  %75 = load ptr, ptr %7, align 8, !tbaa !95
  store ptr %74, ptr %75, align 8, !tbaa !97
  %76 = load ptr, ptr %6, align 8, !tbaa !94
  %77 = getelementptr inbounds nuw %struct.global_State, ptr %76, i32 0, i32 20
  %78 = load ptr, ptr %10, align 8, !tbaa !97
  %79 = getelementptr inbounds nuw %struct.UpVal, ptr %78, i32 0, i32 5
  %80 = getelementptr inbounds nuw %struct.anon, ptr %79, i32 0, i32 0
  store ptr %77, ptr %80, align 8, !tbaa !90
  %81 = load ptr, ptr %6, align 8, !tbaa !94
  %82 = getelementptr inbounds nuw %struct.global_State, ptr %81, i32 0, i32 20
  %83 = getelementptr inbounds nuw %struct.UpVal, ptr %82, i32 0, i32 5
  %84 = getelementptr inbounds nuw %struct.anon, ptr %83, i32 0, i32 1
  %85 = load ptr, ptr %84, align 8, !tbaa !90
  %86 = load ptr, ptr %10, align 8, !tbaa !97
  %87 = getelementptr inbounds nuw %struct.UpVal, ptr %86, i32 0, i32 5
  %88 = getelementptr inbounds nuw %struct.anon, ptr %87, i32 0, i32 1
  store ptr %85, ptr %88, align 8, !tbaa !90
  %89 = load ptr, ptr %10, align 8, !tbaa !97
  %90 = load ptr, ptr %10, align 8, !tbaa !97
  %91 = getelementptr inbounds nuw %struct.UpVal, ptr %90, i32 0, i32 5
  %92 = getelementptr inbounds nuw %struct.anon, ptr %91, i32 0, i32 1
  %93 = load ptr, ptr %92, align 8, !tbaa !90
  %94 = getelementptr inbounds nuw %struct.UpVal, ptr %93, i32 0, i32 5
  %95 = getelementptr inbounds nuw %struct.anon, ptr %94, i32 0, i32 0
  store ptr %89, ptr %95, align 8, !tbaa !90
  %96 = load ptr, ptr %10, align 8, !tbaa !97
  %97 = load ptr, ptr %6, align 8, !tbaa !94
  %98 = getelementptr inbounds nuw %struct.global_State, ptr %97, i32 0, i32 20
  %99 = getelementptr inbounds nuw %struct.UpVal, ptr %98, i32 0, i32 5
  %100 = getelementptr inbounds nuw %struct.anon, ptr %99, i32 0, i32 1
  store ptr %96, ptr %100, align 8, !tbaa !90
  %101 = load ptr, ptr %10, align 8, !tbaa !97
  store ptr %101, ptr %3, align 8
  store i32 1, ptr %9, align 4
  call void @llvm.lifetime.end.p0(i64 8, ptr %10) #5
  br label %102

102:                                              ; preds = %41, %35
  call void @llvm.lifetime.end.p0(i64 8, ptr %8) #5
  call void @llvm.lifetime.end.p0(i64 8, ptr %7) #5
  call void @llvm.lifetime.end.p0(i64 8, ptr %6) #5
  %103 = load ptr, ptr %3, align 8
  ret ptr %103
}