; Function Attrs: mustprogress uwtable
define hidden noundef ptr @_Z14luaF_findupvalP9lua_StateP10lua_TValue(ptr noundef %0, ptr noundef %1) local_unnamed_addr #0 {
  %3 = getelementptr inbounds nuw i8, ptr %0, i64 24
  %4 = load ptr, ptr %3, align 8, !tbaa !19
  %5 = getelementptr inbounds nuw i8, ptr %0, i64 96
  %6 = load ptr, ptr %5, align 8, !tbaa !56
  %.not40 = icmp eq ptr %6, null
  br i1 %.not40, label %.critedge, label %.lr.ph.preheader

.lr.ph.preheader:                                 ; preds = %2
  %7 = getelementptr inbounds nuw i8, ptr %6, i64 8
  %8 = load ptr, ptr %7, align 8, !tbaa !57
  %.not3747 = icmp ult ptr %8, %1
  br i1 %.not3747, label %.critedge, label %.lr.ph48

.lr.ph:                                           ; preds = %14
  %9 = getelementptr inbounds nuw i8, ptr %16, i64 8
  %10 = load ptr, ptr %9, align 8, !tbaa !57
  %.not37 = icmp ult ptr %10, %1
  br i1 %.not37, label %.critedge.loopexit, label %.lr.ph48, !llvm.loop !58

.lr.ph48:                                         ; preds = %.lr.ph.preheader, %.lr.ph
  %11 = phi ptr [ %10, %.lr.ph ], [ %8, %.lr.ph.preheader ]
  %12 = phi ptr [ %16, %.lr.ph ], [ %6, %.lr.ph.preheader ]
  %13 = icmp eq ptr %11, %1
  br i1 %13, label %.loopexit, label %14

14:                                               ; preds = %.lr.ph48
  %15 = getelementptr inbounds nuw i8, ptr %12, i64 32
  %16 = load ptr, ptr %15, align 8, !tbaa !56
  %.not = icmp eq ptr %16, null
  br i1 %.not, label %.critedge.loopexit, label %.lr.ph, !llvm.loop !58

.critedge.loopexit:                               ; preds = %.lr.ph, %14
  %17 = getelementptr inbounds nuw i8, ptr %12, i64 32
  br label %.critedge

.critedge:                                        ; preds = %.critedge.loopexit, %.lr.ph.preheader, %2
  %.033.lcssa = phi ptr [ %5, %2 ], [ %5, %.lr.ph.preheader ], [ %17, %.critedge.loopexit ]
  %18 = getelementptr inbounds nuw i8, ptr %0, i64 4
  %19 = load i8, ptr %18, align 4, !tbaa !4
  %20 = tail call noundef ptr @_Z12luaM_newgco_P9lua_Statemh(ptr noundef %0, i64 noundef 40, i8 noundef zeroext %19)
  %21 = load ptr, ptr %3, align 8, !tbaa !19
  %22 = getelementptr inbounds nuw i8, ptr %21, i64 32
  %23 = load i8, ptr %22, align 8, !tbaa !20
  %24 = and i8 %23, 3
  %25 = getelementptr inbounds nuw i8, ptr %20, i64 1
  store i8 %24, ptr %25, align 1, !tbaa !59
  store i8 12, ptr %20, align 8, !tbaa !60
  %26 = load i8, ptr %18, align 4, !tbaa !4
  %27 = getelementptr inbounds nuw i8, ptr %20, i64 2
  store i8 %26, ptr %27, align 2, !tbaa !61
  %28 = getelementptr inbounds nuw i8, ptr %20, i64 3
  store i8 0, ptr %28, align 1, !tbaa !62
  %29 = getelementptr inbounds nuw i8, ptr %20, i64 8
  store ptr %1, ptr %29, align 8, !tbaa !57
  %30 = load ptr, ptr %.033.lcssa, align 8, !tbaa !56
  %31 = getelementptr inbounds nuw i8, ptr %20, i64 16
  %32 = getelementptr inbounds nuw i8, ptr %20, i64 32
  store ptr %30, ptr %32, align 8, !tbaa !53
  store ptr %20, ptr %.033.lcssa, align 8, !tbaa !56
  %33 = getelementptr inbounds nuw i8, ptr %4, i64 2816
  store ptr %33, ptr %31, align 8, !tbaa !53
  %34 = getelementptr inbounds nuw i8, ptr %4, i64 2840
  %35 = load ptr, ptr %34, align 8, !tbaa !53
  %36 = getelementptr inbounds nuw i8, ptr %20, i64 24
  store ptr %35, ptr %36, align 8, !tbaa !53
  %37 = getelementptr inbounds nuw i8, ptr %35, i64 16
  store ptr %20, ptr %37, align 8, !tbaa !53
  store ptr %20, ptr %34, align 8, !tbaa !53
  br label %.loopexit

.loopexit:                                        ; preds = %.lr.ph48, %.critedge
  %.0 = phi ptr [ %20, %.critedge ], [ %12, %.lr.ph48 ]
  ret ptr %.0
}